; Function Attrs: mustprogress uwtable
define i32 @utrie2_internalU8NextIndex_77(ptr noundef readonly captures(none) %0, i32 noundef %1, ptr noundef %2, ptr noundef %3) local_unnamed_addr #1 {
  %5 = alloca i32, align 4
  call void @llvm.lifetime.start.p0(i64 4, ptr nonnull %5) #12
  store i32 0, ptr %5, align 4, !tbaa !19
  %6 = ptrtoint ptr %3 to i64
  %7 = ptrtoint ptr %2 to i64
  %8 = sub i64 %6, %7
  %9 = icmp slt i64 %8, 8
  %10 = trunc i64 %8 to i32
  %.0 = select i1 %9, i32 %10, i32 7
  %11 = call i32 @utf8_nextCharSafeBody_77(ptr noundef %2, ptr noundef nonnull %5, i32 noundef %.0, i32 noundef %1, i8 noundef signext -1)
  %12 = load i32, ptr %5, align 4, !tbaa !19
  %13 = icmp ult i32 %11, 55296
  br i1 %13, label %14, label %24

14:                                               ; preds = %4
  %15 = load ptr, ptr %0, align 8, !tbaa !13
  %16 = lshr i32 %11, 5
  %17 = zext nneg i32 %16 to i64
  %18 = getelementptr inbounds nuw i16, ptr %15, i64 %17
  %19 = load i16, ptr %18, align 2, !tbaa !14
  %20 = zext i16 %19 to i32
  %21 = shl nuw nsw i32 %20, 2
  %22 = and i32 %11, 31
  %23 = add nuw nsw i32 %21, %22
  br label %_ZL7u8IndexPK6UTrie2ii.exit

24:                                               ; preds = %4
  %25 = icmp ult i32 %11, 65536
  br i1 %25, label %26, label %39

26:                                               ; preds = %24
  %27 = load ptr, ptr %0, align 8, !tbaa !13
  %28 = icmp samesign ult i32 %11, 56320
  %29 = select i1 %28, i32 320, i32 0
  %30 = lshr i32 %11, 5
  %31 = add nuw nsw i32 %29, %30
  %32 = zext nneg i32 %31 to i64
  %33 = getelementptr inbounds nuw i16, ptr %27, i64 %32
  %34 = load i16, ptr %33, align 2, !tbaa !14
  %35 = zext i16 %34 to i32
  %36 = shl nuw nsw i32 %35, 2
  %37 = and i32 %11, 31
  %38 = add nuw nsw i32 %36, %37
  br label %_ZL7u8IndexPK6UTrie2ii.exit

39:                                               ; preds = %24
  %40 = icmp ugt i32 %11, 1114111
  br i1 %40, label %41, label %49

41:                                               ; preds = %39
  %42 = getelementptr inbounds nuw i8, ptr %0, i64 16
  %43 = load ptr, ptr %42, align 8, !tbaa !18
  %44 = icmp eq ptr %43, null
  br i1 %44, label %45, label %_ZL7u8IndexPK6UTrie2ii.exit

45:                                               ; preds = %41
  %46 = getelementptr inbounds nuw i8, ptr %0, i64 24
  %47 = load i32, ptr %46, align 8, !tbaa !15
  %48 = add nsw i32 %47, 128
  br label %_ZL7u8IndexPK6UTrie2ii.exit

49:                                               ; preds = %39
  %50 = getelementptr inbounds nuw i8, ptr %0, i64 44
  %51 = load i32, ptr %50, align 4, !tbaa !16
  %.not.i = icmp slt i32 %11, %51
  br i1 %.not.i, label %55, label %52

52:                                               ; preds = %49
  %53 = getelementptr inbounds nuw i8, ptr %0, i64 48
  %54 = load i32, ptr %53, align 8, !tbaa !17
  br label %_ZL7u8IndexPK6UTrie2ii.exit

55:                                               ; preds = %49
  %56 = load ptr, ptr %0, align 8, !tbaa !13
  %57 = lshr i32 %11, 11
  %58 = zext nneg i32 %57 to i64
  %59 = getelementptr inbounds nuw i16, ptr %56, i64 %58
  %60 = getelementptr inbounds nuw i8, ptr %59, i64 4160
  %61 = load i16, ptr %60, align 2, !tbaa !14
  %62 = zext i16 %61 to i32
  %63 = lshr i32 %11, 5
  %64 = and i32 %63, 63
  %65 = add nuw nsw i32 %64, %62
  %66 = zext nneg i32 %65 to i64
  %67 = getelementptr inbounds nuw i16, ptr %56, i64 %66
  %68 = load i16, ptr %67, align 2, !tbaa !14
  %69 = zext i16 %68 to i32
  %70 = shl nuw nsw i32 %69, 2
  %71 = and i32 %11, 31
  %72 = add nuw nsw i32 %70, %71
  br label %_ZL7u8IndexPK6UTrie2ii.exit

_ZL7u8IndexPK6UTrie2ii.exit:                      ; preds = %14, %26, %41, %45, %52, %55
  %73 = phi i32 [ %23, %14 ], [ %38, %26 ], [ %54, %52 ], [ %72, %55 ], [ %48, %45 ], [ 128, %41 ]
  %74 = shl i32 %73, 3
  %75 = or i32 %74, %12
  call void @llvm.lifetime.end.p0(i64 4, ptr nonnull %5) #12
  ret i32 %75
}